; Function Attrs: mustprogress nofree norecurse nosync nounwind willreturn memory(read, inaccessiblemem: none) uwtable
define internal noundef zeroext i1 @_ZN6icu_7712_GLOBAL__N_115shouldChangeToEERKNS_13UnicodeStringE(ptr noundef nonnull readonly align 8 captures(none) dereferenceable(64) %0) #15 {
  %2 = getelementptr inbounds nuw i8, ptr %0, i64 8
  %3 = load i16, ptr %2, align 8, !tbaa !25
  %4 = icmp slt i16 %3, 0
  %5 = ashr i16 %3, 5
  %6 = sext i16 %5 to i32
  %7 = getelementptr inbounds nuw i8, ptr %0, i64 12
  %8 = load i32, ptr %7, align 4
  %9 = select i1 %4, i32 %8, i32 %6
  %10 = icmp eq i32 %9, 0
  br i1 %10, label %_ZNK6icu_7713UnicodeStringixEi.exit37.thread, label %_ZNK6icu_7713UnicodeStringixEi.exit

_ZNK6icu_7713UnicodeStringixEi.exit:              ; preds = %1
  %11 = and i16 %3, 2
  %.not.i.i.i = icmp eq i16 %11, 0
  %12 = getelementptr inbounds nuw i8, ptr %0, i64 10
  %13 = getelementptr inbounds nuw i8, ptr %0, i64 24
  %14 = load ptr, ptr %13, align 8
  %15 = select i1 %.not.i.i.i, ptr %14, ptr %12
  %16 = load i16, ptr %15, align 2, !tbaa !68
  %17 = icmp eq i16 %16, 104
  br i1 %17, label %20, label %_ZNK6icu_7713UnicodeStringixEi.exit19

_ZNK6icu_7713UnicodeStringixEi.exit19:            ; preds = %_ZNK6icu_7713UnicodeStringixEi.exit
  %18 = icmp eq i16 %16, 72
  %19 = icmp sgt i32 %9, 1
  %or.cond = and i1 %19, %18
  br i1 %or.cond, label %_ZNK6icu_7713UnicodeStringixEi.exit22, label %_ZNK6icu_7713UnicodeStringixEi.exit40

20:                                               ; preds = %_ZNK6icu_7713UnicodeStringixEi.exit
  %.old1 = icmp sgt i32 %9, 1
  br i1 %.old1, label %_ZNK6icu_7713UnicodeStringixEi.exit22, label %_ZNK6icu_7713UnicodeStringixEi.exit43

_ZNK6icu_7713UnicodeStringixEi.exit22:            ; preds = %20, %_ZNK6icu_7713UnicodeStringixEi.exit19
  %21 = getelementptr inbounds nuw i8, ptr %15, i64 2
  %22 = load i16, ptr %21, align 2, !tbaa !68
  switch i16 %22, label %_ZNK6icu_7713UnicodeStringixEi.exit43 [
    i16 105, label %23
    i16 73, label %23
  ]

23:                                               ; preds = %_ZNK6icu_7713UnicodeStringixEi.exit22, %_ZNK6icu_7713UnicodeStringixEi.exit22
  %24 = icmp eq i32 %9, 2
  br i1 %24, label %_ZNK6icu_7713UnicodeStringixEi.exit37.thread, label %_ZNK6icu_7713UnicodeStringixEi.exit28

_ZNK6icu_7713UnicodeStringixEi.exit28:            ; preds = %23
  %25 = getelementptr inbounds nuw i8, ptr %15, i64 4
  %26 = load i16, ptr %25, align 2, !tbaa !68
  %27 = add i16 %26, -65
  %28 = tail call i16 @llvm.fshl.i16(i16 %27, i16 %27, i16 14)
  switch i16 %28, label %_ZNK6icu_7713UnicodeStringixEi.exit37.thread [
    i16 8, label %_ZNK6icu_7713UnicodeStringixEi.exit43
    i16 0, label %_ZNK6icu_7713UnicodeStringixEi.exit43
    i16 9, label %_ZNK6icu_7713UnicodeStringixEi.exit43
    i16 1, label %_ZNK6icu_7713UnicodeStringixEi.exit43
  ]

_ZNK6icu_7713UnicodeStringixEi.exit40:            ; preds = %_ZNK6icu_7713UnicodeStringixEi.exit19
  %29 = icmp eq i16 %16, 105
  br i1 %29, label %_ZNK6icu_7713UnicodeStringixEi.exit37.thread, label %_ZNK6icu_7713UnicodeStringixEi.exit43

_ZNK6icu_7713UnicodeStringixEi.exit43:            ; preds = %_ZNK6icu_7713UnicodeStringixEi.exit28, %_ZNK6icu_7713UnicodeStringixEi.exit28, %_ZNK6icu_7713UnicodeStringixEi.exit28, %_ZNK6icu_7713UnicodeStringixEi.exit28, %_ZNK6icu_7713UnicodeStringixEi.exit22, %20, %_ZNK6icu_7713UnicodeStringixEi.exit40
  %30 = icmp eq i16 %16, 73
  br label %_ZNK6icu_7713UnicodeStringixEi.exit37.thread

_ZNK6icu_7713UnicodeStringixEi.exit37.thread:     ; preds = %_ZNK6icu_7713UnicodeStringixEi.exit28, %_ZNK6icu_7713UnicodeStringixEi.exit43, %_ZNK6icu_7713UnicodeStringixEi.exit40, %23, %1
  %.0 = phi i1 [ false, %1 ], [ true, %23 ], [ true, %_ZNK6icu_7713UnicodeStringixEi.exit40 ], [ %30, %_ZNK6icu_7713UnicodeStringixEi.exit43 ], [ true, %_ZNK6icu_7713UnicodeStringixEi.exit28 ]
  ret i1 %.0
}